; Function Attrs: mustprogress nofree norecurse nosync nounwind willreturn memory(readwrite, inaccessiblemem: none) uwtable
define internal void @"_ZNSt17_Function_handlerIFvR9DfgVertexEZN11V3DfgPasses13eliminateVarsER8DfgGraphR25V3DfgEliminateVarsContextE3$_0E9_M_invokeERKSt9_Any_dataS1_"(ptr nocapture noundef nonnull readonly align 8 dereferenceable(16) %0, ptr noundef nonnull align 8 dereferenceable(72) %1) #17 align 2 {
  %3 = getelementptr inbounds i8, ptr %1, i64 64
  %4 = getelementptr inbounds i8, ptr %1, i64 48
  %5 = load ptr, ptr %4, align 8
  %6 = getelementptr inbounds i8, ptr %5, i64 56
  %7 = load i32, ptr %6, align 8
  %8 = getelementptr inbounds i8, ptr %1, i64 60
  %9 = load i32, ptr %8, align 4
  %.not.i.i.i.i = icmp eq i32 %9, %7
  br i1 %.not.i.i.i.i, label %_ZN9DfgVertex4userIPS_EERT_v.exit.i.i.i, label %_ZN9DfgVertex4userIPS_EERT_v.exit.thread.i.i.i

_ZN9DfgVertex4userIPS_EERT_v.exit.thread.i.i.i:   ; preds = %2
  store i32 %7, ptr %8, align 4
  store ptr null, ptr %3, align 8
  br label %10

_ZN9DfgVertex4userIPS_EERT_v.exit.i.i.i:          ; preds = %2
  %.pr.i.i.i = load ptr, ptr %3, align 8
  %.not.i.i.i = icmp eq ptr %.pr.i.i.i, null
  br i1 %.not.i.i.i, label %10, label %"_ZSt10__invoke_rIvRZN11V3DfgPasses13eliminateVarsER8DfgGraphR25V3DfgEliminateVarsContextE3$_0JR9DfgVertexEENSt9enable_ifIX16is_invocable_r_vIT_T0_DpT1_EESA_E4typeEOSB_DpOSC_.exit"

10:                                               ; preds = %_ZN9DfgVertex4userIPS_EERT_v.exit.i.i.i, %_ZN9DfgVertex4userIPS_EERT_v.exit.thread.i.i.i
  %11 = load ptr, ptr %0, align 8
  %12 = load ptr, ptr %11, align 8
  store ptr %12, ptr %3, align 8
  %13 = load ptr, ptr %0, align 8
  store ptr %1, ptr %13, align 8
  br label %"_ZSt10__invoke_rIvRZN11V3DfgPasses13eliminateVarsER8DfgGraphR25V3DfgEliminateVarsContextE3$_0JR9DfgVertexEENSt9enable_ifIX16is_invocable_r_vIT_T0_DpT1_EESA_E4typeEOSB_DpOSC_.exit"

"_ZSt10__invoke_rIvRZN11V3DfgPasses13eliminateVarsER8DfgGraphR25V3DfgEliminateVarsContextE3$_0JR9DfgVertexEENSt9enable_ifIX16is_invocable_r_vIT_T0_DpT1_EESA_E4typeEOSB_DpOSC_.exit": ; preds = %_ZN9DfgVertex4userIPS_EERT_v.exit.i.i.i, %10
  ret void
}